; ModuleID = '31/315.c'
source_filename = "31/315.c"
target datalayout = "e-m:e-p270:32:32-p271:32:32-p272:64:64-i64:64-f80:128-n8:16:32:64-S128"
target triple = "x86_64-pc-linux-gnu"

%struct.student = type { [10 x i8], [50 x i8], %struct.student* }

@.str = private unnamed_addr constant [3 x i8] c"%s\00", align 1
@.str.1 = private unnamed_addr constant [6 x i8] c"%s%s\0A\00", align 1

; Function Attrs: noinline nounwind uwtable
define dso_local void @main() #0 {
  %1 = alloca i32, align 4
  %2 = alloca %struct.student*, align 8
  %3 = alloca %struct.student*, align 8
  %4 = alloca %struct.student*, align 8
  %5 = alloca %struct.student*, align 8
  store i32 72, i32* %1, align 4
  %6 = load i32, i32* %1, align 4
  %7 = sext i32 %6 to i64
  %8 = call noalias i8* @malloc(i64 %7) #3
  %9 = bitcast i8* %8 to %struct.student*
  store %struct.student* %9, %struct.student** %2, align 8
  %10 = load i32, i32* %1, align 4
  %11 = sext i32 %10 to i64
  %12 = call noalias i8* @malloc(i64 %11) #3
  %13 = bitcast i8* %12 to %struct.student*
  store %struct.student* %13, %struct.student** %3, align 8
  %14 = load %struct.student*, %struct.student** %3, align 8
  %15 = getelementptr inbounds %struct.student, %struct.student* %14, i32 0, i32 0
  %16 = getelementptr inbounds [10 x i8], [10 x i8]* %15, i64 0, i64 0
  %17 = call i32 (i8*, ...) @__isoc99_scanf(i8* getelementptr inbounds ([3 x i8], [3 x i8]* @.str, i64 0, i64 0), i8* %16)
  %18 = load %struct.student*, %struct.student** %3, align 8
  %19 = getelementptr inbounds %struct.student, %struct.student* %18, i32 0, i32 1
  %20 = getelementptr inbounds [50 x i8], [50 x i8]* %19, i64 0, i64 0
  %21 = call i32 (i8*, ...) bitcast (i32 (...)* @gets to i32 (i8*, ...)*)(i8* %20)
  %22 = load %struct.student*, %struct.student** %2, align 8
  %23 = load %struct.student*, %struct.student** %3, align 8
  %24 = getelementptr inbounds %struct.student, %struct.student* %23, i32 0, i32 2
  store %struct.student* %22, %struct.student** %24, align 8
  %25 = load %struct.student*, %struct.student** %2, align 8
  %26 = getelementptr inbounds %struct.student, %struct.student* %25, i32 0, i32 2
  store %struct.student* null, %struct.student** %26, align 8
  %27 = load %struct.student*, %struct.student** %3, align 8
  store %struct.student* %27, %struct.student** %4, align 8
  %28 = load %struct.student*, %struct.student** %3, align 8
  store %struct.student* %28, %struct.student** %5, align 8
  br label %29

29:                                               ; preds = %45, %0
  %30 = load i32, i32* %1, align 4
  %31 = sext i32 %30 to i64
  %32 = call noalias i8* @malloc(i64 %31) #3
  %33 = bitcast i8* %32 to %struct.student*
  store %struct.student* %33, %struct.student** %4, align 8
  %34 = load %struct.student*, %struct.student** %4, align 8
  %35 = getelementptr inbounds %struct.student, %struct.student* %34, i32 0, i32 0
  %36 = getelementptr inbounds [10 x i8], [10 x i8]* %35, i64 0, i64 0
  %37 = call i32 (i8*, ...) @__isoc99_scanf(i8* getelementptr inbounds ([3 x i8], [3 x i8]* @.str, i64 0, i64 0), i8* %36)
  %38 = load %struct.student*, %struct.student** %4, align 8
  %39 = getelementptr inbounds %struct.student, %struct.student* %38, i32 0, i32 0
  %40 = getelementptr inbounds [10 x i8], [10 x i8]* %39, i64 0, i64 0
  %41 = load i8, i8* %40, align 8
  %42 = sext i8 %41 to i32
  %43 = icmp eq i32 %42, 101
  br i1 %43, label %44, label %45

44:                                               ; preds = %29
  br label %54

45:                                               ; preds = %29
  %46 = load %struct.student*, %struct.student** %4, align 8
  %47 = getelementptr inbounds %struct.student, %struct.student* %46, i32 0, i32 1
  %48 = getelementptr inbounds [50 x i8], [50 x i8]* %47, i64 0, i64 0
  %49 = call i32 (i8*, ...) bitcast (i32 (...)* @gets to i32 (i8*, ...)*)(i8* %48)
  %50 = load %struct.student*, %struct.student** %5, align 8
  %51 = load %struct.student*, %struct.student** %4, align 8
  %52 = getelementptr inbounds %struct.student, %struct.student* %51, i32 0, i32 2
  store %struct.student* %50, %struct.student** %52, align 8
  %53 = load %struct.student*, %struct.student** %4, align 8
  store %struct.student* %53, %struct.student** %5, align 8
  br label %29

54:                                               ; preds = %44
  br label %55

55:                                               ; preds = %60, %54
  %56 = load %struct.student*, %struct.student** %5, align 8
  %57 = getelementptr inbounds %struct.student, %struct.student* %56, i32 0, i32 2
  %58 = load %struct.student*, %struct.student** %57, align 8
  %59 = icmp ne %struct.student* %58, null
  br i1 %59, label %60, label %71

60:                                               ; preds = %55
  %61 = load %struct.student*, %struct.student** %5, align 8
  %62 = getelementptr inbounds %struct.student, %struct.student* %61, i32 0, i32 0
  %63 = getelementptr inbounds [10 x i8], [10 x i8]* %62, i64 0, i64 0
  %64 = load %struct.student*, %struct.student** %5, align 8
  %65 = getelementptr inbounds %struct.student, %struct.student* %64, i32 0, i32 1
  %66 = getelementptr inbounds [50 x i8], [50 x i8]* %65, i64 0, i64 0
  %67 = call i32 (i8*, ...) @printf(i8* getelementptr inbounds ([6 x i8], [6 x i8]* @.str.1, i64 0, i64 0), i8* %63, i8* %66)
  %68 = load %struct.student*, %struct.student** %5, align 8
  %69 = getelementptr inbounds %struct.student, %struct.student* %68, i32 0, i32 2
  %70 = load %struct.student*, %struct.student** %69, align 8
  store %struct.student* %70, %struct.student** %5, align 8
  br label %55

71:                                               ; preds = %55
  ret void
}

; Function Attrs: nounwind
declare dso_local noalias i8* @malloc(i64) #1

declare dso_local i32 @__isoc99_scanf(i8*, ...) #2

declare dso_local i32 @gets(...) #2

declare dso_local i32 @printf(i8*, ...) #2


!llvm.module.flags = !{!0}
!llvm.ident = !{!1}

!0 = !{i32 1, !"wchar_size", i32 4}
!1 = !{!"clang version 10.0.0-4ubuntu1 "}
